target datalayout = "e-m:e-p270:32:32-p271:32:32-p272:64:64-i64:64-i128:128-f80:128-n8:16:32:64-S128"
target triple = "x86_64-pc-linux-gnu"

%"class.cv::Size_" = type { i32, i32 }
%"class.cv::tracking::impl::tld::Data" = type { i8, i8, i32, double, %"class.cv::Size_" }

@.str = private unnamed_addr constant [7 x i8] c"Data:\0A\00", align 1
@.str.2 = private unnamed_addr constant [16 x i8] c"\09frameNum = %d\0A\00", align 1
@.str.3 = private unnamed_addr constant [17 x i8] c"\09confident = %s\0A\00", align 1
@.str.4 = private unnamed_addr constant [5 x i8] c"true\00", align 1
@.str.5 = private unnamed_addr constant [6 x i8] c"false\00", align 1
@.str.6 = private unnamed_addr constant [22 x i8] c"\09failedLastTime = %s\0A\00", align 1
@.str.7 = private unnamed_addr constant [18 x i8] c"\09minSize = %dx%d\0A\00", align 1

; Function Attrs: mustprogress nounwind uwtable
define hidden void @_ZN2cv8tracking4impl3tld4Data7printmeEP8_IO_FILE(ptr noundef nonnull align 8 dereferenceable(24) %0, ptr noundef %1) #6 align 2 {
  %3 = alloca ptr, align 8
  %4 = alloca ptr, align 8
  store ptr %0, ptr %3, align 8, !tbaa !95
  store ptr %1, ptr %4, align 8, !tbaa !198
  %5 = load ptr, ptr %3, align 8
  %6 = load ptr, ptr %4, align 8, !tbaa !198
  %7 = call i32 (ptr, ptr, ...) @fprintf(ptr noundef %6, ptr noundef @.str) #3
  %8 = load ptr, ptr %4, align 8, !tbaa !198
  %9 = getelementptr inbounds nuw %"class.cv::tracking::impl::tld::Data", ptr %5, i32 0, i32 2
  %10 = load i32, ptr %9, align 4, !tbaa !108
  %11 = call i32 (ptr, ptr, ...) @fprintf(ptr noundef %8, ptr noundef @.str.2, i32 noundef %10) #3
  %12 = load ptr, ptr %4, align 8, !tbaa !198
  %13 = getelementptr inbounds nuw %"class.cv::tracking::impl::tld::Data", ptr %5, i32 0, i32 0
  %14 = load i8, ptr %13, align 8, !tbaa !87, !range !110, !noundef !111
  %15 = trunc i8 %14 to i1
  %16 = select i1 %15, ptr @.str.4, ptr @.str.5
  %17 = call i32 (ptr, ptr, ...) @fprintf(ptr noundef %12, ptr noundef @.str.3, ptr noundef %16) #3
  %18 = load ptr, ptr %4, align 8, !tbaa !198
  %19 = getelementptr inbounds nuw %"class.cv::tracking::impl::tld::Data", ptr %5, i32 0, i32 1
  %20 = load i8, ptr %19, align 1, !tbaa !89, !range !110, !noundef !111
  %21 = trunc i8 %20 to i1
  %22 = select i1 %21, ptr @.str.4, ptr @.str.5
  %23 = call i32 (ptr, ptr, ...) @fprintf(ptr noundef %18, ptr noundef @.str.6, ptr noundef %22) #3
  %24 = load ptr, ptr %4, align 8, !tbaa !198
  %25 = getelementptr inbounds nuw %"class.cv::tracking::impl::tld::Data", ptr %5, i32 0, i32 4
  %26 = getelementptr inbounds nuw %"class.cv::Size_", ptr %25, i32 0, i32 0
  %27 = load i32, ptr %26, align 8, !tbaa !196
  %28 = getelementptr inbounds nuw %"class.cv::tracking::impl::tld::Data", ptr %5, i32 0, i32 4
  %29 = getelementptr inbounds nuw %"class.cv::Size_", ptr %28, i32 0, i32 1
  %30 = load i32, ptr %29, align 4, !tbaa !197
  %31 = call i32 (ptr, ptr, ...) @fprintf(ptr noundef %24, ptr noundef @.str.7, i32 noundef %27, i32 noundef %30) #3
  ret void
}