; Function Attrs: mustprogress nofree nounwind uwtable
define hidden void @_ZN2cv8tracking4impl3tld4Data7printmeEP8_IO_FILE(ptr noundef nonnull readonly align 8 captures(none) dereferenceable(24) %0, ptr noundef captures(none) %1) local_unnamed_addr #14 align 2 {
  %3 = tail call i64 @fwrite(ptr nonnull @.str, i64 6, i64 1, ptr %1)
  %4 = getelementptr inbounds nuw i8, ptr %0, i64 4
  %5 = load i32, ptr %4, align 4, !tbaa !66
  %6 = tail call i32 (ptr, ptr, ...) @fprintf(ptr noundef %1, ptr noundef nonnull @.str.2, i32 noundef %5) #28
  %7 = load i8, ptr %0, align 8, !tbaa !84, !range !86, !noundef !87
  %8 = trunc nuw i8 %7 to i1
  %9 = select i1 %8, ptr @.str.4, ptr @.str.5
  %10 = tail call i32 (ptr, ptr, ...) @fprintf(ptr noundef %1, ptr noundef nonnull @.str.3, ptr noundef nonnull %9) #28
  %11 = getelementptr inbounds nuw i8, ptr %0, i64 1
  %12 = load i8, ptr %11, align 1, !tbaa !85, !range !86, !noundef !87
  %13 = trunc nuw i8 %12 to i1
  %14 = select i1 %13, ptr @.str.4, ptr @.str.5
  %15 = tail call i32 (ptr, ptr, ...) @fprintf(ptr noundef %1, ptr noundef nonnull @.str.6, ptr noundef nonnull %14) #28
  %16 = getelementptr inbounds nuw i8, ptr %0, i64 16
  %17 = load i32, ptr %16, align 8, !tbaa !64
  %18 = getelementptr inbounds nuw i8, ptr %0, i64 20
  %19 = load i32, ptr %18, align 4, !tbaa !65
  %20 = tail call i32 (ptr, ptr, ...) @fprintf(ptr noundef %1, ptr noundef nonnull @.str.7, i32 noundef %17, i32 noundef %19) #28
  ret void
}